; Function Attrs: mustprogress uwtable
define void @_ZNK7openvdb5v11_015UnknownMetadata10writeValueERSo(ptr nocapture noundef nonnull readonly align 8 dereferenceable(64) %this, ptr noundef nonnull align 8 dereferenceable(8) %os) unnamed_addr #3 align 2 {
entry:
  %mBytes = getelementptr inbounds i8, ptr %this, i64 40
  %0 = load ptr, ptr %mBytes, align 8
  %_M_finish.i.i = getelementptr inbounds i8, ptr %this, i64 48
  %1 = load ptr, ptr %_M_finish.i.i, align 8
  %cmp.i.i = icmp eq ptr %0, %1
  br i1 %cmp.i.i, label %if.end, label %if.then

if.then:                                          ; preds = %entry
  %sub.ptr.lhs.cast.i = ptrtoint ptr %1 to i64
  %sub.ptr.rhs.cast.i = ptrtoint ptr %0 to i64
  %sub.ptr.sub.i = sub i64 %sub.ptr.lhs.cast.i, %sub.ptr.rhs.cast.i
  %call6 = tail call noundef nonnull align 8 dereferenceable(8) ptr @_ZNSo5writeEPKcl(ptr noundef nonnull align 8 dereferenceable(8) %os, ptr noundef nonnull %0, i64 noundef %sub.ptr.sub.i)
  br label %if.end

if.end:                                           ; preds = %if.then, %entry
  ret void
}